; Function Attrs: nounwind uwtable
define ptr @Ivy_GraphToNetwork(ptr noundef %0, ptr noundef readonly captures(none) %1) local_unnamed_addr #0 {
  %.val29 = load i32, ptr %1, align 8, !tbaa !75
  %.not = icmp eq i32 %.val29, 0
  %3 = getelementptr i8, ptr %1, i64 24
  %.val31 = load i32, ptr %3, align 8
  br i1 %.not, label %10, label %4

4:                                                ; preds = %2
  %5 = getelementptr i8, ptr %0, i64 32
  %.val32 = load ptr, ptr %5, align 8, !tbaa !83
  %6 = and i32 %.val31, 1
  %7 = ptrtoint ptr %.val32 to i64
  %8 = zext nneg i32 %6 to i64
  %9 = xor i64 %8, %7
  br label %62

10:                                               ; preds = %2
  %11 = getelementptr i8, ptr %1, i64 4
  %.val30 = load i32, ptr %11, align 4, !tbaa !76
  %12 = lshr i32 %.val31, 1
  %13 = and i32 %12, 1073741823
  %.not38 = icmp ult i32 %13, %.val30
  br i1 %.not38, label %19, label %.preheader

.preheader:                                       ; preds = %10
  %14 = getelementptr inbounds nuw i8, ptr %1, i64 8
  %15 = load i32, ptr %14, align 8, !tbaa !77
  %16 = icmp slt i32 %.val30, %15
  tail call void @llvm.assume(i1 %16)
  %17 = getelementptr i8, ptr %1, i64 16
  %18 = zext nneg i32 %.val30 to i64
  br label %28

19:                                               ; preds = %10
  %20 = getelementptr i8, ptr %1, i64 16
  %.val36 = load ptr, ptr %20, align 8, !tbaa !70
  %21 = zext nneg i32 %13 to i64
  %22 = getelementptr inbounds nuw %struct.Dec_Node_t_, ptr %.val36, i64 %21, i32 2
  %23 = load ptr, ptr %22, align 8, !tbaa !51
  %24 = and i32 %.val31, 1
  %25 = ptrtoint ptr %23 to i64
  %26 = zext nneg i32 %24 to i64
  %27 = xor i64 %25, %26
  br label %62

28:                                               ; preds = %.preheader, %28
  %indvars.iv = phi i64 [ %18, %.preheader ], [ %indvars.iv.next, %28 ]
  %.val = load ptr, ptr %17, align 8, !tbaa !70
  %29 = getelementptr inbounds nuw %struct.Dec_Node_t_, ptr %.val, i64 %indvars.iv
  %30 = load i32, ptr %29, align 8
  %31 = lshr i32 %30, 1
  %32 = and i32 %31, 1073741823
  %33 = zext nneg i32 %32 to i64
  %34 = getelementptr inbounds nuw %struct.Dec_Node_t_, ptr %.val, i64 %33, i32 2
  %35 = load ptr, ptr %34, align 8, !tbaa !51
  %36 = and i32 %30, 1
  %37 = ptrtoint ptr %35 to i64
  %38 = zext nneg i32 %36 to i64
  %39 = xor i64 %38, %37
  %40 = inttoptr i64 %39 to ptr
  %41 = getelementptr inbounds nuw i8, ptr %29, i64 4
  %42 = load i32, ptr %41, align 4
  %43 = lshr i32 %42, 1
  %44 = and i32 %43, 1073741823
  %45 = zext nneg i32 %44 to i64
  %46 = getelementptr inbounds nuw %struct.Dec_Node_t_, ptr %.val, i64 %45, i32 2
  %47 = load ptr, ptr %46, align 8, !tbaa !51
  %48 = and i32 %42, 1
  %49 = ptrtoint ptr %47 to i64
  %50 = zext nneg i32 %48 to i64
  %51 = xor i64 %50, %49
  %52 = inttoptr i64 %51 to ptr
  %53 = tail call ptr @Ivy_And(ptr noundef %0, ptr noundef %40, ptr noundef %52) #12
  %54 = getelementptr inbounds nuw i8, ptr %29, i64 8
  store ptr %53, ptr %54, align 8, !tbaa !51
  %indvars.iv.next = add nuw nsw i64 %indvars.iv, 1
  %55 = load i32, ptr %14, align 8, !tbaa !77
  %56 = sext i32 %55 to i64
  %57 = icmp slt i64 %indvars.iv.next, %56
  br i1 %57, label %28, label %.critedge, !llvm.loop !97

.critedge:                                        ; preds = %28
  %.val35 = load i32, ptr %3, align 8
  %58 = and i32 %.val35, 1
  %59 = ptrtoint ptr %53 to i64
  %60 = zext nneg i32 %58 to i64
  %61 = xor i64 %60, %59
  br label %62

62:                                               ; preds = %.critedge, %19, %4
  %.025.in = phi i64 [ %9, %4 ], [ %27, %19 ], [ %61, %.critedge ]
  %.025 = inttoptr i64 %.025.in to ptr
  ret ptr %.025
}